target datalayout = "e-m:e-p270:32:32-p271:32:32-p272:64:64-i64:64-i128:128-f80:128-n8:16:32:64-S128"
target triple = "x86_64-pc-linux-gnu"

%struct.URLContext = type { ptr, ptr, ptr, ptr, i32, i32, i32, i32, %struct.AVIOInterruptCB, i64, ptr, ptr, i32 }
%struct.AVIOInterruptCB = type { ptr, ptr }
%struct.MMSHContext = type { %struct.MMSContext, [1024 x i8], i32, i32 }
%struct.MMSContext = type { ptr, ptr, ptr, [512 x i8], [65536 x i8], ptr, i32, ptr, i32, i32, i32, i32, i32, i32 }

; Function Attrs: nounwind uwtable
define internal i64 @mmsh_seek(ptr noundef %0, i64 noundef %1, i32 noundef %2) #0 {
  %4 = alloca i64, align 8
  %5 = alloca ptr, align 8
  %6 = alloca i64, align 8
  %7 = alloca i32, align 4
  %8 = alloca ptr, align 8
  %9 = alloca ptr, align 8
  %10 = alloca i32, align 4
  store ptr %0, ptr %5, align 8, !tbaa !4
  store i64 %1, ptr %6, align 8, !tbaa !30
  store i32 %2, ptr %7, align 4, !tbaa !11
  call void @llvm.lifetime.start.p0(i64 8, ptr %8) #5
  %11 = load ptr, ptr %5, align 8, !tbaa !4
  %12 = getelementptr inbounds nuw %struct.URLContext, ptr %11, i32 0, i32 2
  %13 = load ptr, ptr %12, align 8, !tbaa !13
  store ptr %13, ptr %8, align 8, !tbaa !19
  call void @llvm.lifetime.start.p0(i64 8, ptr %9) #5
  %14 = load ptr, ptr %8, align 8, !tbaa !19
  %15 = getelementptr inbounds nuw %struct.MMSHContext, ptr %14, i32 0, i32 0
  store ptr %15, ptr %9, align 8, !tbaa !21
  %16 = load i64, ptr %6, align 8, !tbaa !30
  %17 = icmp eq i64 %16, 0
  br i1 %17, label %18, label %40

18:                                               ; preds = %3
  %19 = load i32, ptr %7, align 4, !tbaa !11
  %20 = icmp eq i32 %19, 1
  br i1 %20, label %21, label %40

21:                                               ; preds = %18
  %22 = load ptr, ptr %9, align 8, !tbaa !21
  %23 = getelementptr inbounds nuw %struct.MMSContext, ptr %22, i32 0, i32 11
  %24 = load i32, ptr %23, align 4, !tbaa !23
  %25 = load ptr, ptr %9, align 8, !tbaa !21
  %26 = getelementptr inbounds nuw %struct.MMSContext, ptr %25, i32 0, i32 6
  %27 = load i32, ptr %26, align 8, !tbaa !27
  %28 = add nsw i32 %24, %27
  %29 = sext i32 %28 to i64
  %30 = load ptr, ptr %8, align 8, !tbaa !19
  %31 = getelementptr inbounds nuw %struct.MMSHContext, ptr %30, i32 0, i32 3
  %32 = load i32, ptr %31, align 4, !tbaa !31
  %33 = sext i32 %32 to i64
  %34 = load ptr, ptr %9, align 8, !tbaa !21
  %35 = getelementptr inbounds nuw %struct.MMSContext, ptr %34, i32 0, i32 10
  %36 = load i32, ptr %35, align 8, !tbaa !33
  %37 = sext i32 %36 to i64
  %38 = mul nsw i64 %33, %37
  %39 = add nsw i64 %29, %38
  store i64 %39, ptr %4, align 8
  store i32 1, ptr %10, align 4
  br label %41

40:                                               ; preds = %18, %3
  store i64 -38, ptr %4, align 8
  store i32 1, ptr %10, align 4
  br label %41

41:                                               ; preds = %40, %21
  call void @llvm.lifetime.end.p0(i64 8, ptr %9) #5
  call void @llvm.lifetime.end.p0(i64 8, ptr %8) #5
  %42 = load i64, ptr %4, align 8
  ret i64 %42
}