; Function Attrs: mustprogress nofree norecurse nosync nounwind willreturn memory(read, inaccessiblemem: none) uwtable
define internal range(i64 -4611686018427387904, 4611686020574871552) i64 @mmsh_seek(ptr noundef readonly captures(none) %0, i64 noundef %1, i32 noundef %2) #1 {
  %4 = icmp eq i64 %1, 0
  %5 = icmp eq i32 %2, 1
  %or.cond = and i1 %4, %5
  br i1 %or.cond, label %6, label %23

6:                                                ; preds = %3
  %7 = getelementptr inbounds nuw i8, ptr %0, i64 16
  %8 = load ptr, ptr %7, align 8, !tbaa !4
  %9 = getelementptr inbounds nuw i8, ptr %8, i64 66108
  %10 = load i32, ptr %9, align 4, !tbaa !15
  %11 = getelementptr inbounds nuw i8, ptr %8, i64 66080
  %12 = load i32, ptr %11, align 8, !tbaa !20
  %13 = add nsw i32 %12, %10
  %14 = sext i32 %13 to i64
  %15 = getelementptr inbounds nuw i8, ptr %8, i64 67148
  %16 = load i32, ptr %15, align 4, !tbaa !22
  %17 = sext i32 %16 to i64
  %18 = getelementptr inbounds nuw i8, ptr %8, i64 66104
  %19 = load i32, ptr %18, align 8, !tbaa !27
  %20 = sext i32 %19 to i64
  %21 = mul nsw i64 %20, %17
  %22 = add nsw i64 %21, %14
  br label %23

23:                                               ; preds = %3, %6
  %.0 = phi i64 [ %22, %6 ], [ -38, %3 ]
  ret i64 %.0
}